target datalayout = "e-m:e-p270:32:32-p271:32:32-p272:64:64-i64:64-i128:128-f80:128-n8:16:32:64-S128"
target triple = "x86_64-pc-linux-gnu"

; Function Attrs: nounwind uwtable
define zeroext i8 @uriHexdigToIntW(i32 noundef %0) #0 {
  %2 = alloca i8, align 1
  %3 = alloca i32, align 4
  store i32 %0, ptr %3, align 4, !tbaa !14
  %4 = load i32, ptr %3, align 4, !tbaa !14
  switch i32 %4, label %20 [
    i32 48, label %5
    i32 49, label %5
    i32 50, label %5
    i32 51, label %5
    i32 52, label %5
    i32 53, label %5
    i32 54, label %5
    i32 55, label %5
    i32 56, label %5
    i32 57, label %5
    i32 97, label %10
    i32 98, label %10
    i32 99, label %10
    i32 100, label %10
    i32 101, label %10
    i32 102, label %10
    i32 65, label %15
    i32 66, label %15
    i32 67, label %15
    i32 68, label %15
    i32 69, label %15
    i32 70, label %15
  ]

5:                                                ; preds = %1, %1, %1, %1, %1, %1, %1, %1, %1, %1
  %6 = load i32, ptr %3, align 4, !tbaa !14
  %7 = add nsw i32 9, %6
  %8 = sub nsw i32 %7, 57
  %9 = trunc i32 %8 to i8
  store i8 %9, ptr %2, align 1
  br label %21

10:                                               ; preds = %1, %1, %1, %1, %1, %1
  %11 = load i32, ptr %3, align 4, !tbaa !14
  %12 = add nsw i32 15, %11
  %13 = sub nsw i32 %12, 102
  %14 = trunc i32 %13 to i8
  store i8 %14, ptr %2, align 1
  br label %21

15:                                               ; preds = %1, %1, %1, %1, %1, %1
  %16 = load i32, ptr %3, align 4, !tbaa !14
  %17 = add nsw i32 15, %16
  %18 = sub nsw i32 %17, 70
  %19 = trunc i32 %18 to i8
  store i8 %19, ptr %2, align 1
  br label %21

20:                                               ; preds = %1
  store i8 0, ptr %2, align 1
  br label %21

21:                                               ; preds = %20, %15, %10, %5
  %22 = load i8, ptr %2, align 1
  ret i8 %22
}