; Function Attrs: mustprogress nofree norecurse nosync nounwind willreturn memory(none) uwtable
define zeroext range(i8 0, 16) i8 @uriHexdigToIntW(i32 noundef %0) local_unnamed_addr #6 {
  %switch.tableidx = add i32 %0, -48
  %2 = icmp ult i32 %switch.tableidx, 55
  br i1 %2, label %switch.lookup, label %4

switch.lookup:                                    ; preds = %1
  %3 = zext nneg i32 %switch.tableidx to i64
  %switch.gep = getelementptr inbounds nuw [55 x i8], ptr @switch.table.uriHexdigToIntW, i64 0, i64 %3
  %switch.load = load i8, ptr %switch.gep, align 1
  br label %4

4:                                                ; preds = %switch.lookup, %1
  %.0 = phi i8 [ 0, %1 ], [ %switch.load, %switch.lookup ]
  ret i8 %.0
}